target datalayout = "e-m:e-p270:32:32-p271:32:32-p272:64:64-i64:64-i128:128-f80:128-n8:16:32:64-S128"
target triple = "x86_64-pc-linux-gnu"

%class.params_ref = type { ptr }
%class.th_rewriter = type { ptr, %class.params_ref }
%"struct.spacer::term_ordered_rpp" = type { ptr, %class.arith_util, %"struct.spacer::arith_add_less_proc", %"struct.spacer::bool_and_less_proc" }
%class.arith_util = type { ptr, ptr }
%"struct.spacer::arith_add_less_proc" = type { ptr }
%"struct.spacer::bool_and_less_proc" = type { ptr, ptr }
%class.rewriter_tpl = type { %class.rewriter_core, ptr, i32, %class.ptr_vector.30, %class.var_shifter, %class.inv_var_shifter, %class.obj_ref, %class.obj_ref.42, %class.obj_ref.42, %class.svector.17 }
%class.rewriter_core = type { ptr, ptr, i8, i8, %class.ptr_vector.26, ptr, %class.svector.28, %class.ref_vector, %class.ptr_vector.26, ptr, %class.ref_vector.32, %class.obj_hashtable, ptr, i32, %class.svector.40 }
%class.svector.28 = type { %class.vector.29 }
%class.vector.29 = type { ptr }
%class.ref_vector = type { %class.ref_vector_core }
%class.ref_vector_core = type { %class.ref_manager_wrapper, %class.ptr_vector.30 }
%class.ref_manager_wrapper = type { ptr }
%class.ptr_vector.26 = type { %class.vector.27 }
%class.vector.27 = type { ptr }
%class.ref_vector.32 = type { %class.ref_vector_core.33 }
%class.ref_vector_core.33 = type { %class.ref_manager_wrapper.34, %class.ptr_vector.35 }
%class.ref_manager_wrapper.34 = type { ptr }
%class.ptr_vector.35 = type { %class.vector.36 }
%class.vector.36 = type { ptr }
%class.obj_hashtable = type { %class.core_hashtable.base.39, [4 x i8] }
%class.core_hashtable.base.39 = type <{ ptr, i32, i32, i32 }>
%class.svector.40 = type { %class.vector.41 }
%class.vector.41 = type { ptr }
%class.ptr_vector.30 = type { %class.vector.31 }
%class.vector.31 = type { ptr }
%class.var_shifter = type <{ %class.var_shifter_core, i32, i32, i32, [4 x i8] }>
%class.var_shifter_core = type { %class.rewriter_core }
%class.inv_var_shifter = type <{ %class.var_shifter_core, i32, [4 x i8] }>
%class.obj_ref = type { ptr, ptr }
%class.obj_ref.42 = type { ptr, ptr }
%class.svector.17 = type { %class.vector.18 }
%class.vector.18 = type { ptr }

@.str = private unnamed_addr constant [10 x i8] c"sort_sums\00", align 1
@_ZN12rewriter_tplIN6spacer16term_ordered_rppEEC1ER11ast_managerbRS1_ = weak_odr hidden unnamed_addr alias void (ptr, ptr, i1, ptr), ptr @_ZN12rewriter_tplIN6spacer16term_ordered_rppEEC2ER11ast_managerbRS1_

; Function Attrs: mustprogress nounwind uwtable
define linkonce_odr hidden void @_ZN6spacer18bool_and_less_procC2ER11ast_managerRK10arith_util(ptr noundef nonnull align 8 dereferenceable(16) %0, ptr noundef nonnull align 8 dereferenceable(976) %1, ptr noundef nonnull align 8 dereferenceable(16) %2) unnamed_addr #6 comdat align 2 {
  %4 = alloca ptr, align 8
  %5 = alloca ptr, align 8
  %6 = alloca ptr, align 8
  store ptr %0, ptr %4, align 8, !tbaa !247
  store ptr %1, ptr %5, align 8, !tbaa !20
  store ptr %2, ptr %6, align 8, !tbaa !39
  %7 = load ptr, ptr %4, align 8
  %8 = getelementptr inbounds nuw %"struct.spacer::bool_and_less_proc", ptr %7, i32 0, i32 0
  %9 = load ptr, ptr %5, align 8, !tbaa !20
  store ptr %9, ptr %8, align 8, !tbaa !20
  %10 = getelementptr inbounds nuw %"struct.spacer::bool_and_less_proc", ptr %7, i32 0, i32 1
  %11 = load ptr, ptr %6, align 8, !tbaa !39
  store ptr %11, ptr %10, align 8, !tbaa !39
  ret void
}

; Function Attrs: mustprogress nounwind uwtable
define linkonce_odr hidden void @_ZN6spacer19arith_add_less_procC2ERK10arith_util(ptr noundef nonnull align 8 dereferenceable(8) %0, ptr noundef nonnull align 8 dereferenceable(16) %1) unnamed_addr #6 comdat align 2 {
  %3 = alloca ptr, align 8
  %4 = alloca ptr, align 8
  store ptr %0, ptr %3, align 8, !tbaa !245
  store ptr %1, ptr %4, align 8, !tbaa !39
  %5 = load ptr, ptr %3, align 8
  %6 = getelementptr inbounds nuw %"struct.spacer::arith_add_less_proc", ptr %5, i32 0, i32 0
  %7 = load ptr, ptr %4, align 8, !tbaa !39
  store ptr %7, ptr %6, align 8, !tbaa !39
  ret void
}

; Function Attrs: mustprogress uwtable
define weak_odr hidden void @_ZN12rewriter_tplIN6spacer16term_ordered_rppEEclEP4exprR7obj_refIS3_11ast_managerE(ptr noundef nonnull align 8 dereferenceable(536) %0, ptr noundef %1, ptr noundef nonnull align 8 dereferenceable(16) %2) #4 comdat align 2 {
  %4 = alloca ptr, align 8
  %5 = alloca ptr, align 8
  %6 = alloca ptr, align 8
  store ptr %0, ptr %4, align 8, !tbaa !28
  store ptr %1, ptr %5, align 8, !tbaa !3
  store ptr %2, ptr %6, align 8, !tbaa !8
  %7 = load ptr, ptr %4, align 8
  %8 = load ptr, ptr %5, align 8, !tbaa !3
  %9 = load ptr, ptr %6, align 8, !tbaa !8
  %10 = getelementptr inbounds nuw %class.rewriter_tpl, ptr %7, i32 0, i32 7
  call void @_ZN12rewriter_tplIN6spacer16term_ordered_rppEEclEP4exprR7obj_refIS3_11ast_managerERS5_I3appS6_E(ptr noundef nonnull align 8 dereferenceable(536) %7, ptr noundef %8, ptr noundef nonnull align 8 dereferenceable(16) %9, ptr noundef nonnull align 8 dereferenceable(16) %10)
  ret void
}

; Function Attrs: mustprogress nounwind uwtable
define linkonce_odr hidden noundef ptr @_ZNK7obj_refI4expr11ast_managerE3getEv(ptr noundef nonnull align 8 dereferenceable(16) %0) #6 comdat align 2 {
  %2 = alloca ptr, align 8
  store ptr %0, ptr %2, align 8, !tbaa !8
  %3 = load ptr, ptr %2, align 8
  %4 = getelementptr inbounds nuw %class.obj_ref, ptr %3, i32 0, i32 0
  %5 = load ptr, ptr %4, align 8, !tbaa !30
  ret ptr %5
}

; Function Attrs: mustprogress uwtable
define linkonce_odr hidden void @_ZN6spacer16term_ordered_rppC2ER11ast_manager(ptr noundef nonnull align 8 dereferenceable(48) %0, ptr noundef nonnull align 8 dereferenceable(976) %1) unnamed_addr #4 comdat align 2 {
  %3 = alloca ptr, align 8
  %4 = alloca ptr, align 8
  store ptr %0, ptr %3, align 8, !tbaa !18
  store ptr %1, ptr %4, align 8, !tbaa !20
  %5 = load ptr, ptr %3, align 8
  %6 = getelementptr inbounds nuw %"struct.spacer::term_ordered_rpp", ptr %5, i32 0, i32 0
  %7 = load ptr, ptr %4, align 8, !tbaa !20
  store ptr %7, ptr %6, align 8, !tbaa !20
  %8 = getelementptr inbounds nuw %"struct.spacer::term_ordered_rpp", ptr %5, i32 0, i32 1
  %9 = getelementptr inbounds nuw %"struct.spacer::term_ordered_rpp", ptr %5, i32 0, i32 0
  %10 = load ptr, ptr %9, align 8, !tbaa !21
  call void @_ZN10arith_utilC1ER11ast_manager(ptr noundef nonnull align 8 dereferenceable(16) %8, ptr noundef nonnull align 8 dereferenceable(976) %10)
  %11 = getelementptr inbounds nuw %"struct.spacer::term_ordered_rpp", ptr %5, i32 0, i32 2
  %12 = getelementptr inbounds nuw %"struct.spacer::term_ordered_rpp", ptr %5, i32 0, i32 1
  call void @_ZN6spacer19arith_add_less_procC2ERK10arith_util(ptr noundef nonnull align 8 dereferenceable(8) %11, ptr noundef nonnull align 8 dereferenceable(16) %12)
  %13 = getelementptr inbounds nuw %"struct.spacer::term_ordered_rpp", ptr %5, i32 0, i32 3
  %14 = getelementptr inbounds nuw %"struct.spacer::term_ordered_rpp", ptr %5, i32 0, i32 0
  %15 = load ptr, ptr %14, align 8, !tbaa !21
  %16 = getelementptr inbounds nuw %"struct.spacer::term_ordered_rpp", ptr %5, i32 0, i32 1
  call void @_ZN6spacer18bool_and_less_procC2ER11ast_managerRK10arith_util(ptr noundef nonnull align 8 dereferenceable(16) %13, ptr noundef nonnull align 8 dereferenceable(976) %15, ptr noundef nonnull align 8 dereferenceable(16) %16)
  ret void
}

; Function Attrs: mustprogress nounwind uwtable
define linkonce_odr hidden noundef nonnull align 8 dereferenceable(976) ptr @_ZNK7obj_refI4expr11ast_managerE1mEv(ptr noundef nonnull align 8 dereferenceable(16) %0) #6 comdat align 2 {
  %2 = alloca ptr, align 8
  store ptr %0, ptr %2, align 8, !tbaa !8
  %3 = load ptr, ptr %2, align 8
  %4 = getelementptr inbounds nuw %class.obj_ref, ptr %3, i32 0, i32 1
  %5 = load ptr, ptr %4, align 8, !tbaa !15
  ret ptr %5
}

; Function Attrs: mustprogress nounwind uwtable
define linkonce_odr hidden void @_ZN10params_refC2Ev(ptr noundef nonnull align 8 dereferenceable(8) %0) unnamed_addr #6 comdat align 2 {
  %2 = alloca ptr, align 8
  store ptr %0, ptr %2, align 8, !tbaa !10
  %3 = load ptr, ptr %2, align 8
  %4 = getelementptr inbounds nuw %class.params_ref, ptr %3, i32 0, i32 0
  store ptr null, ptr %4, align 8, !tbaa !12
  ret void
}

; Function Attrs: mustprogress uwtable
define hidden void @_ZN6spacer15normalize_orderEP4exprR7obj_refIS0_11ast_managerE(ptr noundef %0, ptr noundef nonnull align 8 dereferenceable(16) %1) #4 personality ptr @__gxx_personality_v0 {
  %3 = alloca ptr, align 8
  %4 = alloca ptr, align 8
  %5 = alloca %class.params_ref, align 8
  %6 = alloca ptr, align 8
  %7 = alloca i32, align 4
  %8 = alloca %class.th_rewriter, align 8
  %9 = alloca %"struct.spacer::term_ordered_rpp", align 8
  %10 = alloca %class.rewriter_tpl, align 8
  store ptr %0, ptr %3, align 8, !tbaa !3
  store ptr %1, ptr %4, align 8, !tbaa !8
  call void @llvm.lifetime.start.p0(i64 8, ptr %5) #3
  call void @_ZN10params_refC2Ev(ptr noundef nonnull align 8 dereferenceable(8) %5) #3
  invoke void @_ZN10params_ref8set_boolEPKcb(ptr noundef nonnull align 8 dereferenceable(8) %5, ptr noundef @.str, i1 noundef zeroext true)
          to label %11 unwind label %32

11:                                               ; preds = %2
  call void @llvm.lifetime.start.p0(i64 16, ptr %8) #3
  %12 = load ptr, ptr %4, align 8, !tbaa !8
  %13 = invoke noundef nonnull align 8 dereferenceable(976) ptr @_ZNK7obj_refI4expr11ast_managerE1mEv(ptr noundef nonnull align 8 dereferenceable(16) %12)
          to label %14 unwind label %36

14:                                               ; preds = %11
  invoke void @_ZN11th_rewriterC1ER11ast_managerRK10params_ref(ptr noundef nonnull align 8 dereferenceable(16) %8, ptr noundef nonnull align 8 dereferenceable(976) %13, ptr noundef nonnull align 8 dereferenceable(8) %5)
          to label %15 unwind label %36

15:                                               ; preds = %14
  %16 = load ptr, ptr %3, align 8, !tbaa !3
  %17 = load ptr, ptr %4, align 8, !tbaa !8
  invoke void @_ZN11th_rewriterclEP4exprR7obj_refIS0_11ast_managerE(ptr noundef nonnull align 8 dereferenceable(16) %8, ptr noundef %16, ptr noundef nonnull align 8 dereferenceable(16) %17)
          to label %18 unwind label %40

18:                                               ; preds = %15
  call void @llvm.lifetime.start.p0(i64 48, ptr %9) #3
  %19 = load ptr, ptr %4, align 8, !tbaa !8
  %20 = invoke noundef nonnull align 8 dereferenceable(976) ptr @_ZNK7obj_refI4expr11ast_managerE1mEv(ptr noundef nonnull align 8 dereferenceable(16) %19)
          to label %21 unwind label %44

21:                                               ; preds = %18
  invoke void @_ZN6spacer16term_ordered_rppC2ER11ast_manager(ptr noundef nonnull align 8 dereferenceable(48) %9, ptr noundef nonnull align 8 dereferenceable(976) %20)
          to label %22 unwind label %44

22:                                               ; preds = %21
  call void @llvm.lifetime.start.p0(i64 536, ptr %10) #3
  %23 = load ptr, ptr %4, align 8, !tbaa !8
  %24 = invoke noundef nonnull align 8 dereferenceable(976) ptr @_ZNK7obj_refI4expr11ast_managerE1mEv(ptr noundef nonnull align 8 dereferenceable(16) %23)
          to label %25 unwind label %48

25:                                               ; preds = %22
  invoke void @_ZN12rewriter_tplIN6spacer16term_ordered_rppEEC1ER11ast_managerbRS1_(ptr noundef nonnull align 8 dereferenceable(536) %10, ptr noundef nonnull align 8 dereferenceable(976) %24, i1 noundef zeroext false, ptr noundef nonnull align 8 dereferenceable(48) %9)
          to label %26 unwind label %48

26:                                               ; preds = %25
  %27 = load ptr, ptr %4, align 8, !tbaa !8
  %28 = invoke noundef ptr @_ZNK7obj_refI4expr11ast_managerE3getEv(ptr noundef nonnull align 8 dereferenceable(16) %27)
          to label %29 unwind label %52

29:                                               ; preds = %26
  %30 = load ptr, ptr %4, align 8, !tbaa !8
  invoke void @_ZN12rewriter_tplIN6spacer16term_ordered_rppEEclEP4exprR7obj_refIS3_11ast_managerE(ptr noundef nonnull align 8 dereferenceable(536) %10, ptr noundef %28, ptr noundef nonnull align 8 dereferenceable(16) %30)
          to label %31 unwind label %52

31:                                               ; preds = %29
  call void @_ZN12rewriter_tplIN6spacer16term_ordered_rppEED2Ev(ptr noundef nonnull align 8 dereferenceable(536) %10) #3
  call void @llvm.lifetime.end.p0(i64 536, ptr %10) #3
  call void @llvm.lifetime.end.p0(i64 48, ptr %9) #3
  call void @_ZN11th_rewriterD1Ev(ptr noundef nonnull align 8 dereferenceable(16) %8) #3
  call void @llvm.lifetime.end.p0(i64 16, ptr %8) #3
  call void @_ZN10params_refD1Ev(ptr noundef nonnull align 8 dereferenceable(8) %5) #3
  call void @llvm.lifetime.end.p0(i64 8, ptr %5) #3
  ret void

32:                                               ; preds = %2
  %33 = landingpad { ptr, i32 }
          cleanup
  %34 = extractvalue { ptr, i32 } %33, 0
  store ptr %34, ptr %6, align 8
  %35 = extractvalue { ptr, i32 } %33, 1
  store i32 %35, ptr %7, align 4
  br label %60

36:                                               ; preds = %14, %11
  %37 = landingpad { ptr, i32 }
          cleanup
  %38 = extractvalue { ptr, i32 } %37, 0
  store ptr %38, ptr %6, align 8
  %39 = extractvalue { ptr, i32 } %37, 1
  store i32 %39, ptr %7, align 4
  br label %59

40:                                               ; preds = %15
  %41 = landingpad { ptr, i32 }
          cleanup
  %42 = extractvalue { ptr, i32 } %41, 0
  store ptr %42, ptr %6, align 8
  %43 = extractvalue { ptr, i32 } %41, 1
  store i32 %43, ptr %7, align 4
  br label %58

44:                                               ; preds = %21, %18
  %45 = landingpad { ptr, i32 }
          cleanup
  %46 = extractvalue { ptr, i32 } %45, 0
  store ptr %46, ptr %6, align 8
  %47 = extractvalue { ptr, i32 } %45, 1
  store i32 %47, ptr %7, align 4
  br label %57

48:                                               ; preds = %25, %22
  %49 = landingpad { ptr, i32 }
          cleanup
  %50 = extractvalue { ptr, i32 } %49, 0
  store ptr %50, ptr %6, align 8
  %51 = extractvalue { ptr, i32 } %49, 1
  store i32 %51, ptr %7, align 4
  br label %56

52:                                               ; preds = %29, %26
  %53 = landingpad { ptr, i32 }
          cleanup
  %54 = extractvalue { ptr, i32 } %53, 0
  store ptr %54, ptr %6, align 8
  %55 = extractvalue { ptr, i32 } %53, 1
  store i32 %55, ptr %7, align 4
  call void @_ZN12rewriter_tplIN6spacer16term_ordered_rppEED2Ev(ptr noundef nonnull align 8 dereferenceable(536) %10) #3
  br label %56

56:                                               ; preds = %52, %48
  call void @llvm.lifetime.end.p0(i64 536, ptr %10) #3
  br label %57

57:                                               ; preds = %56, %44
  call void @llvm.lifetime.end.p0(i64 48, ptr %9) #3
  br label %58

58:                                               ; preds = %57, %40
  call void @_ZN11th_rewriterD1Ev(ptr noundef nonnull align 8 dereferenceable(16) %8) #3
  br label %59

59:                                               ; preds = %58, %36
  call void @llvm.lifetime.end.p0(i64 16, ptr %8) #3
  br label %60

60:                                               ; preds = %59, %32
  call void @_ZN10params_refD1Ev(ptr noundef nonnull align 8 dereferenceable(8) %5) #3
  call void @llvm.lifetime.end.p0(i64 8, ptr %5) #3
  br label %61

61:                                               ; preds = %60
  %62 = load ptr, ptr %6, align 8
  %63 = load i32, ptr %7, align 4
  %64 = insertvalue { ptr, i32 } poison, ptr %62, 0
  %65 = insertvalue { ptr, i32 } %64, i32 %63, 1
  resume { ptr, i32 } %65
}