; Function Attrs: mustprogress uwtable
define hidden void @_ZN6spacer15normalize_orderEP4exprR7obj_refIS0_11ast_managerE(ptr noundef %0, ptr noundef nonnull align 8 dereferenceable(16) %1) local_unnamed_addr #3 personality ptr @__gxx_personality_v0 {
  %3 = alloca %class.params_ref, align 8
  %4 = alloca %class.th_rewriter, align 8
  %5 = alloca %"struct.spacer::term_ordered_rpp", align 8
  %6 = alloca %class.rewriter_tpl, align 8
  call void @llvm.lifetime.start.p0(i64 8, ptr nonnull %3) #20
  store ptr null, ptr %3, align 8, !tbaa !3
  invoke void @_ZN10params_ref8set_boolEPKcb(ptr noundef nonnull align 8 dereferenceable(8) %3, ptr noundef nonnull @.str, i1 noundef zeroext true)
          to label %7 unwind label %23

7:                                                ; preds = %2
  call void @llvm.lifetime.start.p0(i64 16, ptr nonnull %4) #20
  %8 = getelementptr inbounds nuw i8, ptr %1, i64 8
  %9 = load ptr, ptr %8, align 8, !tbaa !9
  invoke void @_ZN11th_rewriterC1ER11ast_managerRK10params_ref(ptr noundef nonnull align 8 dereferenceable(16) %4, ptr noundef nonnull align 8 dereferenceable(976) %9, ptr noundef nonnull align 8 dereferenceable(8) %3)
          to label %10 unwind label %25

10:                                               ; preds = %7
  invoke void @_ZN11th_rewriterclEP4exprR7obj_refIS0_11ast_managerE(ptr noundef nonnull align 8 dereferenceable(16) %4, ptr noundef %0, ptr noundef nonnull align 8 dereferenceable(16) %1)
          to label %11 unwind label %27

11:                                               ; preds = %10
  call void @llvm.lifetime.start.p0(i64 48, ptr nonnull %5) #20
  %12 = load ptr, ptr %8, align 8, !tbaa !9
  store ptr %12, ptr %5, align 8, !tbaa !13
  %13 = getelementptr inbounds nuw i8, ptr %5, i64 8
  invoke void @_ZN10arith_utilC1ER11ast_manager(ptr noundef nonnull align 8 dereferenceable(16) %13, ptr noundef nonnull align 8 dereferenceable(976) %12)
          to label %14 unwind label %29

14:                                               ; preds = %11
  %15 = getelementptr inbounds nuw i8, ptr %5, i64 24
  store ptr %13, ptr %15, align 8, !tbaa !14
  %16 = getelementptr inbounds nuw i8, ptr %5, i64 32
  %17 = load ptr, ptr %5, align 8, !tbaa !16
  store ptr %17, ptr %16, align 8, !tbaa !13
  %18 = getelementptr inbounds nuw i8, ptr %5, i64 40
  store ptr %13, ptr %18, align 8, !tbaa !14
  call void @llvm.lifetime.start.p0(i64 536, ptr nonnull %6) #20
  %19 = load ptr, ptr %8, align 8, !tbaa !9
  invoke void @_ZN12rewriter_tplIN6spacer16term_ordered_rppEEC1ER11ast_managerbRS1_(ptr noundef nonnull align 8 dereferenceable(536) %6, ptr noundef nonnull align 8 dereferenceable(976) %19, i1 noundef zeroext false, ptr noundef nonnull align 8 dereferenceable(48) %5)
          to label %20 unwind label %31

20:                                               ; preds = %14
  %21 = load ptr, ptr %1, align 8, !tbaa !22
  %22 = getelementptr inbounds nuw i8, ptr %6, i64 496
  invoke void @_ZN12rewriter_tplIN6spacer16term_ordered_rppEEclEP4exprR7obj_refIS3_11ast_managerERS5_I3appS6_E(ptr noundef nonnull align 8 dereferenceable(536) %6, ptr noundef %21, ptr noundef nonnull align 8 dereferenceable(16) %1, ptr noundef nonnull align 8 dereferenceable(16) %22)
          to label %_ZN12rewriter_tplIN6spacer16term_ordered_rppEEclEP4exprR7obj_refIS3_11ast_managerE.exit unwind label %33

_ZN12rewriter_tplIN6spacer16term_ordered_rppEEclEP4exprR7obj_refIS3_11ast_managerE.exit: ; preds = %20
  call void @_ZN12rewriter_tplIN6spacer16term_ordered_rppEED2Ev(ptr noundef nonnull align 8 dereferenceable(536) %6) #20
  call void @llvm.lifetime.end.p0(i64 536, ptr nonnull %6) #20
  call void @llvm.lifetime.end.p0(i64 48, ptr nonnull %5) #20
  call void @_ZN11th_rewriterD1Ev(ptr noundef nonnull align 8 dereferenceable(16) %4) #20
  call void @llvm.lifetime.end.p0(i64 16, ptr nonnull %4) #20
  call void @_ZN10params_refD1Ev(ptr noundef nonnull align 8 dereferenceable(8) %3) #20
  call void @llvm.lifetime.end.p0(i64 8, ptr nonnull %3) #20
  ret void

23:                                               ; preds = %2
  %24 = landingpad { ptr, i32 }
          cleanup
  br label %39

25:                                               ; preds = %7
  %26 = landingpad { ptr, i32 }
          cleanup
  br label %38

27:                                               ; preds = %10
  %28 = landingpad { ptr, i32 }
          cleanup
  br label %37

29:                                               ; preds = %11
  %30 = landingpad { ptr, i32 }
          cleanup
  br label %36

31:                                               ; preds = %14
  %32 = landingpad { ptr, i32 }
          cleanup
  br label %35

33:                                               ; preds = %20
  %34 = landingpad { ptr, i32 }
          cleanup
  call void @_ZN12rewriter_tplIN6spacer16term_ordered_rppEED2Ev(ptr noundef nonnull align 8 dereferenceable(536) %6) #20
  br label %35

35:                                               ; preds = %33, %31
  %.pn = phi { ptr, i32 } [ %34, %33 ], [ %32, %31 ]
  call void @llvm.lifetime.end.p0(i64 536, ptr nonnull %6) #20
  br label %36

36:                                               ; preds = %35, %29
  %.pn.pn = phi { ptr, i32 } [ %.pn, %35 ], [ %30, %29 ]
  call void @llvm.lifetime.end.p0(i64 48, ptr nonnull %5) #20
  br label %37

37:                                               ; preds = %36, %27
  %.pn.pn.pn = phi { ptr, i32 } [ %.pn.pn, %36 ], [ %28, %27 ]
  call void @_ZN11th_rewriterD1Ev(ptr noundef nonnull align 8 dereferenceable(16) %4) #20
  br label %38

38:                                               ; preds = %37, %25
  %.pn.pn.pn.pn = phi { ptr, i32 } [ %.pn.pn.pn, %37 ], [ %26, %25 ]
  call void @llvm.lifetime.end.p0(i64 16, ptr nonnull %4) #20
  br label %39

39:                                               ; preds = %38, %23
  %.pn.pn.pn.pn.pn = phi { ptr, i32 } [ %.pn.pn.pn.pn, %38 ], [ %24, %23 ]
  call void @_ZN10params_refD1Ev(ptr noundef nonnull align 8 dereferenceable(8) %3) #20
  call void @llvm.lifetime.end.p0(i64 8, ptr nonnull %3) #20
  resume { ptr, i32 } %.pn.pn.pn.pn.pn
}